target datalayout = "e-m:e-p270:32:32-p271:32:32-p272:64:64-i64:64-i128:128-f80:128-n8:16:32:64-S128"
target triple = "x86_64-pc-linux-gnu"

%struct.mspack_system = type { ptr, ptr, ptr, ptr, ptr, ptr, ptr, ptr, ptr, ptr, ptr }
%struct.mskwaj_decompressor_p = type { %struct.mskwaj_decompressor, ptr, i32 }
%struct.mskwaj_decompressor = type { ptr, ptr, ptr, ptr, ptr }
%struct.mskwajd_header_p = type { %struct.mskwajd_header, ptr }
%struct.mskwajd_header = type { i16, i64, i32, i64, ptr, ptr, i16 }

; Function Attrs: nounwind uwtable
define internal void @kwajd_close(ptr noundef %0, ptr noundef %1) #0 {
  %3 = alloca ptr, align 8
  %4 = alloca ptr, align 8
  %5 = alloca ptr, align 8
  %6 = alloca ptr, align 8
  store ptr %0, ptr %3, align 8
  store ptr %1, ptr %4, align 8
  %7 = load ptr, ptr %3, align 8
  store ptr %7, ptr %5, align 8
  %8 = load ptr, ptr %4, align 8
  store ptr %8, ptr %6, align 8
  %9 = load ptr, ptr %5, align 8
  %10 = icmp ne ptr %9, null
  br i1 %10, label %11, label %16

11:                                               ; preds = %2
  %12 = load ptr, ptr %5, align 8
  %13 = getelementptr inbounds %struct.mskwaj_decompressor_p, ptr %12, i32 0, i32 1
  %14 = load ptr, ptr %13, align 8
  %15 = icmp ne ptr %14, null
  br i1 %15, label %17, label %16

16:                                               ; preds = %11, %2
  br label %50

17:                                               ; preds = %11
  %18 = load ptr, ptr %5, align 8
  %19 = getelementptr inbounds %struct.mskwaj_decompressor_p, ptr %18, i32 0, i32 1
  %20 = load ptr, ptr %19, align 8
  %21 = getelementptr inbounds %struct.mspack_system, ptr %20, i32 0, i32 1
  %22 = load ptr, ptr %21, align 8
  %23 = load ptr, ptr %6, align 8
  %24 = getelementptr inbounds %struct.mskwajd_header_p, ptr %23, i32 0, i32 1
  %25 = load ptr, ptr %24, align 8
  call void %22(ptr noundef %25)
  %26 = load ptr, ptr %5, align 8
  %27 = getelementptr inbounds %struct.mskwaj_decompressor_p, ptr %26, i32 0, i32 1
  %28 = load ptr, ptr %27, align 8
  %29 = getelementptr inbounds %struct.mspack_system, ptr %28, i32 0, i32 8
  %30 = load ptr, ptr %29, align 8
  %31 = load ptr, ptr %4, align 8
  %32 = getelementptr inbounds %struct.mskwajd_header, ptr %31, i32 0, i32 4
  %33 = load ptr, ptr %32, align 8
  call void %30(ptr noundef %33)
  %34 = load ptr, ptr %5, align 8
  %35 = getelementptr inbounds %struct.mskwaj_decompressor_p, ptr %34, i32 0, i32 1
  %36 = load ptr, ptr %35, align 8
  %37 = getelementptr inbounds %struct.mspack_system, ptr %36, i32 0, i32 8
  %38 = load ptr, ptr %37, align 8
  %39 = load ptr, ptr %4, align 8
  %40 = getelementptr inbounds %struct.mskwajd_header, ptr %39, i32 0, i32 5
  %41 = load ptr, ptr %40, align 8
  call void %38(ptr noundef %41)
  %42 = load ptr, ptr %5, align 8
  %43 = getelementptr inbounds %struct.mskwaj_decompressor_p, ptr %42, i32 0, i32 1
  %44 = load ptr, ptr %43, align 8
  %45 = getelementptr inbounds %struct.mspack_system, ptr %44, i32 0, i32 8
  %46 = load ptr, ptr %45, align 8
  %47 = load ptr, ptr %4, align 8
  call void %46(ptr noundef %47)
  %48 = load ptr, ptr %5, align 8
  %49 = getelementptr inbounds %struct.mskwaj_decompressor_p, ptr %48, i32 0, i32 2
  store i32 0, ptr %49, align 8
  br label %50

50:                                               ; preds = %17, %16
  ret void
}